; Function Attrs: mustprogress uwtable
define hidden noundef nonnull align 8 dereferenceable(8) ptr @_ZN3smt15display_compactERSojPKN3sat7literalEPKP4expr(ptr noundef nonnull returned align 8 dereferenceable(8) %0, i32 noundef %1, ptr noundef readonly captures(none) %2, ptr noundef readonly captures(none) %3) local_unnamed_addr #4 {
  %.not10 = icmp eq i32 %1, 0
  br i1 %.not10, label %._crit_edge, label %.lr.ph.preheader

.lr.ph.preheader:                                 ; preds = %4
  %wide.trip.count = zext i32 %1 to i64
  br label %.lr.ph

._crit_edge:                                      ; preds = %7, %4
  ret ptr %0

.lr.ph:                                           ; preds = %.lr.ph.preheader, %7
  %indvars.iv = phi i64 [ 0, %.lr.ph.preheader ], [ %indvars.iv.next, %7 ]
  %.not = icmp eq i64 %indvars.iv, 0
  br i1 %.not, label %7, label %5

5:                                                ; preds = %.lr.ph
  %6 = tail call noundef nonnull align 8 dereferenceable(8) ptr @_ZSt16__ostream_insertIcSt11char_traitsIcEERSt13basic_ostreamIT_T0_ES6_PKS3_l(ptr noundef nonnull align 8 dereferenceable(8) %0, ptr noundef nonnull @.str.10, i64 noundef 1)
  br label %7

7:                                                ; preds = %5, %.lr.ph
  %8 = getelementptr inbounds nuw %"class.sat::literal", ptr %2, i64 %indvars.iv
  %.sroa.0.0.copyload = load i32, ptr %8, align 4, !tbaa !16
  %9 = tail call noundef nonnull align 8 dereferenceable(8) ptr @_ZN3smt15display_compactERSoN3sat7literalEPKP4expr(ptr noundef nonnull align 8 dereferenceable(8) %0, i32 %.sroa.0.0.copyload, ptr noundef %3)
  %indvars.iv.next = add nuw nsw i64 %indvars.iv, 1
  %exitcond.not = icmp eq i64 %indvars.iv.next, %wide.trip.count
  br i1 %exitcond.not, label %._crit_edge, label %.lr.ph, !llvm.loop !19
}